target datalayout = "e-m:e-p270:32:32-p271:32:32-p272:64:64-i64:64-i128:128-f80:128-n8:16:32:64-S128"
target triple = "x86_64-pc-linux-gnu"

%"class.sls::context" = type <{ ptr, ptr, %class.scoped_ptr_vector, %class.indexed_uint_set, %class.indexed_uint_set, %class.ref_vector, %class.svector, %class.params_ref, %class.vector.3, %class.svector.4, %class.svector.4, %class.indexed_uint_set, %class.random_gen, i8, i8, i8, i8, %class.ref_vector, %class.ref_vector, %class.ptr_vector.1, %"struct.sls::context::greater_depth", %"struct.sls::context::less_depth", %class.heap, %class.heap.8, %class.uint_set, %class.ref_vector, %"struct.sls::context::stats", [4 x i8], %class.ref_vector, i8, [7 x i8] }>
%class.scoped_ptr_vector = type { %class.ptr_vector }
%class.ptr_vector = type { %class.vector }
%class.vector = type { ptr }
%class.svector = type { %class.vector.0 }
%class.vector.0 = type { ptr }
%class.params_ref = type { ptr }
%class.vector.3 = type { ptr }
%class.svector.4 = type { %class.vector.5 }
%class.vector.5 = type { ptr }
%class.indexed_uint_set = type { i32, %class.svector, %class.svector }
%class.random_gen = type { i32 }
%class.ptr_vector.1 = type { %class.vector.2 }
%class.vector.2 = type { ptr }
%"struct.sls::context::greater_depth" = type { ptr }
%"struct.sls::context::less_depth" = type { ptr }
%class.heap = type { %"struct.sls::context::greater_depth", %class.svector.6, %class.svector.6 }
%class.svector.6 = type { %class.vector.7 }
%class.vector.7 = type { ptr }
%class.heap.8 = type { %"struct.sls::context::less_depth", %class.svector.6, %class.svector.6 }
%class.uint_set = type { %class.svector }
%"struct.sls::context::stats" = type { i32, i32, i32 }
%class.ref_vector = type { %class.ref_vector_core }
%class.ref_vector_core = type { %class.ref_manager_wrapper, %class.ptr_vector.1 }
%class.ref_manager_wrapper = type { ptr }
%class.ast = type { i32, i32, i32, i32 }

; Function Attrs: mustprogress nounwind uwtable
define linkonce_odr hidden noundef i32 @_ZNK6vectorIP4exprLb0EjE4sizeEv(ptr noundef nonnull align 8 dereferenceable(8) %0) #5 comdat align 2 {
  %2 = alloca i32, align 4
  %3 = alloca ptr, align 8
  store ptr %0, ptr %3, align 8, !tbaa !95
  %4 = load ptr, ptr %3, align 8
  %5 = getelementptr inbounds nuw %class.vector.2, ptr %4, i32 0, i32 0
  %6 = load ptr, ptr %5, align 8, !tbaa !195
  %7 = icmp eq ptr %6, null
  br i1 %7, label %8, label %9

8:                                                ; preds = %1
  store i32 0, ptr %2, align 4
  br label %14

9:                                                ; preds = %1
  %10 = getelementptr inbounds nuw %class.vector.2, ptr %4, i32 0, i32 0
  %11 = load ptr, ptr %10, align 8, !tbaa !195
  %12 = getelementptr inbounds i32, ptr %11, i64 -1
  %13 = load i32, ptr %12, align 4, !tbaa !74
  store i32 %13, ptr %2, align 4
  br label %14

14:                                               ; preds = %9, %8
  %15 = load i32, ptr %2, align 4
  ret i32 %15
}

; Function Attrs: mustprogress nounwind uwtable
define linkonce_odr hidden noundef nonnull align 4 dereferenceable(4) ptr @_ZNK6vectorIjLb0EjEixEj(ptr noundef nonnull align 8 dereferenceable(8) %0, i32 noundef %1) #5 comdat align 2 {
  %3 = alloca ptr, align 8
  %4 = alloca i32, align 4
  store ptr %0, ptr %3, align 8, !tbaa !99
  store i32 %1, ptr %4, align 4, !tbaa !74
  %5 = load ptr, ptr %3, align 8
  %6 = getelementptr inbounds nuw %class.vector.0, ptr %5, i32 0, i32 0
  %7 = load ptr, ptr %6, align 8, !tbaa !153
  %8 = load i32, ptr %4, align 4, !tbaa !74
  %9 = zext i32 %8 to i64
  %10 = getelementptr inbounds nuw i32, ptr %7, i64 %9
  ret ptr %10
}

; Function Attrs: mustprogress nounwind uwtable
define linkonce_odr hidden noundef i32 @_ZNK6vectorIjLb0EjE4sizeEv(ptr noundef nonnull align 8 dereferenceable(8) %0) #5 comdat align 2 {
  %2 = alloca i32, align 4
  %3 = alloca ptr, align 8
  store ptr %0, ptr %3, align 8, !tbaa !99
  %4 = load ptr, ptr %3, align 8
  %5 = getelementptr inbounds nuw %class.vector.0, ptr %4, i32 0, i32 0
  %6 = load ptr, ptr %5, align 8, !tbaa !153
  %7 = icmp eq ptr %6, null
  br i1 %7, label %8, label %9

8:                                                ; preds = %1
  store i32 0, ptr %2, align 4
  br label %14

9:                                                ; preds = %1
  %10 = getelementptr inbounds nuw %class.vector.0, ptr %4, i32 0, i32 0
  %11 = load ptr, ptr %10, align 8, !tbaa !153
  %12 = getelementptr inbounds i32, ptr %11, i64 -1
  %13 = load i32, ptr %12, align 4, !tbaa !74
  store i32 %13, ptr %2, align 4
  br label %14

14:                                               ; preds = %9, %8
  %15 = load i32, ptr %2, align 4
  ret i32 %15
}

; Function Attrs: mustprogress nounwind uwtable
define linkonce_odr hidden noundef ptr @_ZN6vectorIP4exprLb0EjE3endEv(ptr noundef nonnull align 8 dereferenceable(8) %0) #5 comdat align 2 {
  %2 = alloca ptr, align 8
  store ptr %0, ptr %2, align 8, !tbaa !95
  %3 = load ptr, ptr %2, align 8
  %4 = getelementptr inbounds nuw %class.vector.2, ptr %3, i32 0, i32 0
  %5 = load ptr, ptr %4, align 8, !tbaa !195
  %6 = call noundef i32 @_ZNK6vectorIP4exprLb0EjE4sizeEv(ptr noundef nonnull align 8 dereferenceable(8) %3)
  %7 = zext i32 %6 to i64
  %8 = getelementptr inbounds nuw ptr, ptr %5, i64 %7
  ret ptr %8
}

; Function Attrs: mustprogress nounwind uwtable
define linkonce_odr hidden noundef ptr @_ZN6vectorIP4exprLb0EjE5beginEv(ptr noundef nonnull align 8 dereferenceable(8) %0) #5 comdat align 2 {
  %2 = alloca ptr, align 8
  store ptr %0, ptr %2, align 8, !tbaa !95
  %3 = load ptr, ptr %2, align 8
  %4 = getelementptr inbounds nuw %class.vector.2, ptr %3, i32 0, i32 0
  %5 = load ptr, ptr %4, align 8, !tbaa !195
  ret ptr %5
}

; Function Attrs: mustprogress nounwind uwtable
define linkonce_odr hidden noundef nonnull align 8 dereferenceable(8) ptr @_ZN6vectorI10ptr_vectorI4exprELb1EjEixEj(ptr noundef nonnull align 8 dereferenceable(8) %0, i32 noundef %1) #5 comdat align 2 {
  %3 = alloca ptr, align 8
  %4 = alloca i32, align 4
  store ptr %0, ptr %3, align 8, !tbaa !67
  store i32 %1, ptr %4, align 4, !tbaa !74
  %5 = load ptr, ptr %3, align 8
  %6 = getelementptr inbounds nuw %class.vector.3, ptr %5, i32 0, i32 0
  %7 = load ptr, ptr %6, align 8, !tbaa !69
  %8 = load i32, ptr %4, align 4, !tbaa !74
  %9 = zext i32 %8 to i64
  %10 = getelementptr inbounds nuw %class.ptr_vector.1, ptr %7, i64 %9
  ret ptr %10
}

; Function Attrs: mustprogress nounwind uwtable
define linkonce_odr hidden noundef i32 @_ZNK6vectorI10ptr_vectorI4exprELb1EjE4sizeEv(ptr noundef nonnull align 8 dereferenceable(8) %0) #5 comdat align 2 {
  %2 = alloca i32, align 4
  %3 = alloca ptr, align 8
  store ptr %0, ptr %3, align 8, !tbaa !67
  %4 = load ptr, ptr %3, align 8
  %5 = getelementptr inbounds nuw %class.vector.3, ptr %4, i32 0, i32 0
  %6 = load ptr, ptr %5, align 8, !tbaa !69
  %7 = icmp eq ptr %6, null
  br i1 %7, label %8, label %9

8:                                                ; preds = %1
  store i32 0, ptr %2, align 4
  br label %14

9:                                                ; preds = %1
  %10 = getelementptr inbounds nuw %class.vector.3, ptr %4, i32 0, i32 0
  %11 = load ptr, ptr %10, align 8, !tbaa !69
  %12 = getelementptr inbounds i32, ptr %11, i64 -1
  %13 = load i32, ptr %12, align 4, !tbaa !74
  store i32 %13, ptr %2, align 4
  br label %14

14:                                               ; preds = %9, %8
  %15 = load i32, ptr %2, align 4
  ret i32 %15
}

; Function Attrs: mustprogress uwtable
define linkonce_odr hidden void @_ZN16indexed_uint_set6insertEj(ptr noundef nonnull align 8 dereferenceable(24) %0, i32 noundef %1) #4 comdat align 2 {
  %3 = alloca ptr, align 8
  %4 = alloca i32, align 4
  store ptr %0, ptr %3, align 8, !tbaa !57
  store i32 %1, ptr %4, align 4, !tbaa !74
  %5 = load ptr, ptr %3, align 8
  %6 = load i32, ptr %4, align 4, !tbaa !74
  %7 = call noundef zeroext i1 @_ZNK16indexed_uint_set8containsEj(ptr noundef nonnull align 8 dereferenceable(24) %5, i32 noundef %6)
  br i1 %7, label %10, label %8

8:                                                ; preds = %2
  %9 = load i32, ptr %4, align 4, !tbaa !74
  call void @_ZN16indexed_uint_set12insert_freshEj(ptr noundef nonnull align 8 dereferenceable(24) %5, i32 noundef %9)
  br label %10

10:                                               ; preds = %8, %2
  ret void
}

; Function Attrs: mustprogress uwtable
define linkonce_odr hidden noundef zeroext i1 @_ZNK16indexed_uint_set8containsEj(ptr noundef nonnull align 8 dereferenceable(24) %0, i32 noundef %1) #4 comdat align 2 {
  %3 = alloca ptr, align 8
  %4 = alloca i32, align 4
  store ptr %0, ptr %3, align 8, !tbaa !57
  store i32 %1, ptr %4, align 4, !tbaa !74
  %5 = load ptr, ptr %3, align 8
  %6 = load i32, ptr %4, align 4, !tbaa !74
  %7 = getelementptr inbounds nuw %class.indexed_uint_set, ptr %5, i32 0, i32 2
  %8 = call noundef i32 @_ZNK6vectorIjLb0EjE4sizeEv(ptr noundef nonnull align 8 dereferenceable(8) %7)
  %9 = icmp ult i32 %6, %8
  br i1 %9, label %10, label %28

10:                                               ; preds = %2
  %11 = getelementptr inbounds nuw %class.indexed_uint_set, ptr %5, i32 0, i32 2
  %12 = load i32, ptr %4, align 4, !tbaa !74
  %13 = call noundef nonnull align 4 dereferenceable(4) ptr @_ZNK6vectorIjLb0EjEixEj(ptr noundef nonnull align 8 dereferenceable(8) %11, i32 noundef %12)
  %14 = load i32, ptr %13, align 4, !tbaa !74
  %15 = getelementptr inbounds nuw %class.indexed_uint_set, ptr %5, i32 0, i32 0
  %16 = load i32, ptr %15, align 8, !tbaa !59
  %17 = icmp ult i32 %14, %16
  br i1 %17, label %18, label %28

18:                                               ; preds = %10
  %19 = getelementptr inbounds nuw %class.indexed_uint_set, ptr %5, i32 0, i32 1
  %20 = getelementptr inbounds nuw %class.indexed_uint_set, ptr %5, i32 0, i32 2
  %21 = load i32, ptr %4, align 4, !tbaa !74
  %22 = call noundef nonnull align 4 dereferenceable(4) ptr @_ZNK6vectorIjLb0EjEixEj(ptr noundef nonnull align 8 dereferenceable(8) %20, i32 noundef %21)
  %23 = load i32, ptr %22, align 4, !tbaa !74
  %24 = call noundef nonnull align 4 dereferenceable(4) ptr @_ZNK6vectorIjLb0EjEixEj(ptr noundef nonnull align 8 dereferenceable(8) %19, i32 noundef %23)
  %25 = load i32, ptr %24, align 4, !tbaa !74
  %26 = load i32, ptr %4, align 4, !tbaa !74
  %27 = icmp eq i32 %25, %26
  br label %28

28:                                               ; preds = %18, %10, %2
  %29 = phi i1 [ false, %10 ], [ false, %2 ], [ %27, %18 ]
  ret i1 %29
}

; Function Attrs: mustprogress nounwind uwtable
define linkonce_odr hidden noundef i32 @_ZNK3ast6get_idEv(ptr noundef nonnull align 4 dereferenceable(16) %0) #5 comdat align 2 {
  %2 = alloca ptr, align 8
  store ptr %0, ptr %2, align 8, !tbaa !154
  %3 = load ptr, ptr %2, align 8
  %4 = getelementptr inbounds nuw %class.ast, ptr %3, i32 0, i32 0
  %5 = load i32, ptr %4, align 4, !tbaa !156
  ret i32 %5
}

; Function Attrs: mustprogress uwtable
define hidden noundef zeroext i1 @_ZN3sls7context11is_relevantEP4expr(ptr noundef nonnull align 8 dereferenceable(321) %0, ptr noundef %1) #4 align 2 {
  %3 = alloca i1, align 1
  %4 = alloca ptr, align 8
  %5 = alloca ptr, align 8
  %6 = alloca i32, align 4
  %7 = alloca i32, align 4
  %8 = alloca ptr, align 8
  %9 = alloca ptr, align 8
  %10 = alloca ptr, align 8
  %11 = alloca ptr, align 8
  store ptr %0, ptr %4, align 8, !tbaa !8
  store ptr %1, ptr %5, align 8, !tbaa !143
  %12 = load ptr, ptr %4, align 8
  call void @llvm.lifetime.start.p0(i64 4, ptr %6) #3
  %13 = load ptr, ptr %5, align 8, !tbaa !143
  %14 = call noundef i32 @_ZNK3ast6get_idEv(ptr noundef nonnull align 4 dereferenceable(16) %13)
  store i32 %14, ptr %6, align 4, !tbaa !74
  %15 = getelementptr inbounds nuw %"class.sls::context", ptr %12, i32 0, i32 3
  %16 = load i32, ptr %6, align 4, !tbaa !74
  %17 = call noundef zeroext i1 @_ZNK16indexed_uint_set8containsEj(ptr noundef nonnull align 8 dereferenceable(24) %15, i32 noundef %16)
  br i1 %17, label %18, label %19

18:                                               ; preds = %2
  store i1 true, ptr %3, align 1
  store i32 1, ptr %7, align 4
  br label %63

19:                                               ; preds = %2
  %20 = getelementptr inbounds nuw %"class.sls::context", ptr %12, i32 0, i32 4
  %21 = load i32, ptr %6, align 4, !tbaa !74
  %22 = call noundef zeroext i1 @_ZNK16indexed_uint_set8containsEj(ptr noundef nonnull align 8 dereferenceable(24) %20, i32 noundef %21)
  br i1 %22, label %23, label %24

23:                                               ; preds = %19
  store i1 false, ptr %3, align 1
  store i32 1, ptr %7, align 4
  br label %63

24:                                               ; preds = %19
  %25 = getelementptr inbounds nuw %"class.sls::context", ptr %12, i32 0, i32 4
  %26 = load i32, ptr %6, align 4, !tbaa !74
  call void @_ZN16indexed_uint_set6insertEj(ptr noundef nonnull align 8 dereferenceable(24) %25, i32 noundef %26)
  %27 = getelementptr inbounds nuw %"class.sls::context", ptr %12, i32 0, i32 8
  %28 = call noundef i32 @_ZNK6vectorI10ptr_vectorI4exprELb1EjE4sizeEv(ptr noundef nonnull align 8 dereferenceable(8) %27)
  %29 = load i32, ptr %6, align 4, !tbaa !74
  %30 = icmp ule i32 %28, %29
  br i1 %30, label %31, label %32

31:                                               ; preds = %24
  store i1 false, ptr %3, align 1
  store i32 1, ptr %7, align 4
  br label %63

32:                                               ; preds = %24
  call void @llvm.lifetime.start.p0(i64 8, ptr %8) #3
  %33 = getelementptr inbounds nuw %"class.sls::context", ptr %12, i32 0, i32 8
  %34 = load i32, ptr %6, align 4, !tbaa !74
  %35 = call noundef nonnull align 8 dereferenceable(8) ptr @_ZN6vectorI10ptr_vectorI4exprELb1EjEixEj(ptr noundef nonnull align 8 dereferenceable(8) %33, i32 noundef %34)
  store ptr %35, ptr %8, align 8, !tbaa !76
  call void @llvm.lifetime.start.p0(i64 8, ptr %9) #3
  %36 = load ptr, ptr %8, align 8, !tbaa !76
  %37 = call noundef ptr @_ZN6vectorIP4exprLb0EjE5beginEv(ptr noundef nonnull align 8 dereferenceable(8) %36)
  store ptr %37, ptr %9, align 8, !tbaa !173
  call void @llvm.lifetime.start.p0(i64 8, ptr %10) #3
  %38 = load ptr, ptr %8, align 8, !tbaa !76
  %39 = call noundef ptr @_ZN6vectorIP4exprLb0EjE3endEv(ptr noundef nonnull align 8 dereferenceable(8) %38)
  store ptr %39, ptr %10, align 8, !tbaa !173
  br label %40

40:                                               ; preds = %57, %32
  %41 = load ptr, ptr %9, align 8, !tbaa !173
  %42 = load ptr, ptr %10, align 8, !tbaa !173
  %43 = icmp ne ptr %41, %42
  br i1 %43, label %45, label %44

44:                                               ; preds = %40
  store i32 2, ptr %7, align 4
  br label %60

45:                                               ; preds = %40
  call void @llvm.lifetime.start.p0(i64 8, ptr %11) #3
  %46 = load ptr, ptr %9, align 8, !tbaa !173
  %47 = load ptr, ptr %46, align 8, !tbaa !143
  store ptr %47, ptr %11, align 8, !tbaa !143
  %48 = load ptr, ptr %11, align 8, !tbaa !143
  %49 = call noundef zeroext i1 @_ZN3sls7context11is_relevantEP4expr(ptr noundef nonnull align 8 dereferenceable(321) %12, ptr noundef %48)
  br i1 %49, label %50, label %53

50:                                               ; preds = %45
  %51 = getelementptr inbounds nuw %"class.sls::context", ptr %12, i32 0, i32 3
  %52 = load i32, ptr %6, align 4, !tbaa !74
  call void @_ZN16indexed_uint_set6insertEj(ptr noundef nonnull align 8 dereferenceable(24) %51, i32 noundef %52)
  store i1 true, ptr %3, align 1
  store i32 1, ptr %7, align 4
  br label %54

53:                                               ; preds = %45
  store i32 0, ptr %7, align 4
  br label %54

54:                                               ; preds = %53, %50
  call void @llvm.lifetime.end.p0(i64 8, ptr %11) #3
  %55 = load i32, ptr %7, align 4
  switch i32 %55, label %60 [
    i32 0, label %56
  ]

56:                                               ; preds = %54
  br label %57

57:                                               ; preds = %56
  %58 = load ptr, ptr %9, align 8, !tbaa !173
  %59 = getelementptr inbounds nuw ptr, ptr %58, i32 1
  store ptr %59, ptr %9, align 8, !tbaa !173
  br label %40

60:                                               ; preds = %54, %44
  call void @llvm.lifetime.end.p0(i64 8, ptr %10) #3
  call void @llvm.lifetime.end.p0(i64 8, ptr %9) #3
  call void @llvm.lifetime.end.p0(i64 8, ptr %8) #3
  %61 = load i32, ptr %7, align 4
  switch i32 %61, label %63 [
    i32 2, label %62
  ]

62:                                               ; preds = %60
  store i1 false, ptr %3, align 1
  store i32 1, ptr %7, align 4
  br label %63

63:                                               ; preds = %62, %60, %31, %23, %18
  call void @llvm.lifetime.end.p0(i64 4, ptr %6) #3
  %64 = load i1, ptr %3, align 1
  ret i1 %64
}