; Function Attrs: mustprogress uwtable
define hidden noundef zeroext i1 @_ZN3sls7context11is_relevantEP4expr(ptr noundef nonnull align 8 dereferenceable(321) %0, ptr noundef readonly captures(none) %1) local_unnamed_addr #4 align 2 {
  %3 = load i32, ptr %1, align 4, !tbaa !145
  %4 = getelementptr inbounds nuw i8, ptr %0, i64 24
  %5 = getelementptr inbounds nuw i8, ptr %0, i64 40
  %6 = load ptr, ptr %5, align 8, !tbaa !55
  %7 = icmp eq ptr %6, null
  br i1 %7, label %_ZNK16indexed_uint_set8containsEj.exit.thread, label %_ZNK6vectorIjLb0EjE4sizeEv.exit.i

_ZNK6vectorIjLb0EjE4sizeEv.exit.i:                ; preds = %2
  %8 = getelementptr inbounds i8, ptr %6, i64 -4
  %9 = load i32, ptr %8, align 4, !tbaa !58
  %10 = icmp ult i32 %3, %9
  br i1 %10, label %11, label %_ZNK16indexed_uint_set8containsEj.exit.thread

11:                                               ; preds = %_ZNK6vectorIjLb0EjE4sizeEv.exit.i
  %12 = zext i32 %3 to i64
  %13 = getelementptr inbounds nuw i32, ptr %6, i64 %12
  %14 = load i32, ptr %13, align 4, !tbaa !58
  %15 = load i32, ptr %4, align 8, !tbaa !50
  %16 = icmp ult i32 %14, %15
  br i1 %16, label %_ZNK16indexed_uint_set8containsEj.exit, label %_ZNK16indexed_uint_set8containsEj.exit.thread

_ZNK16indexed_uint_set8containsEj.exit:           ; preds = %11
  %17 = getelementptr inbounds nuw i8, ptr %0, i64 32
  %18 = load ptr, ptr %17, align 8, !tbaa !55
  %19 = zext i32 %14 to i64
  %20 = getelementptr inbounds nuw i32, ptr %18, i64 %19
  %21 = load i32, ptr %20, align 4, !tbaa !58
  %22 = icmp eq i32 %21, %3
  br i1 %22, label %_ZNK6vectorI10ptr_vectorI4exprELb1EjE4sizeEv.exit.thread, label %_ZNK16indexed_uint_set8containsEj.exit.thread

_ZNK16indexed_uint_set8containsEj.exit.thread:    ; preds = %2, %_ZNK6vectorIjLb0EjE4sizeEv.exit.i, %11, %_ZNK16indexed_uint_set8containsEj.exit
  %23 = getelementptr inbounds nuw i8, ptr %0, i64 48
  %24 = getelementptr inbounds nuw i8, ptr %0, i64 64
  %25 = load ptr, ptr %24, align 8, !tbaa !55
  %26 = icmp eq ptr %25, null
  br i1 %26, label %_ZNK16indexed_uint_set8containsEj.exit.thread.i, label %_ZNK6vectorIjLb0EjE4sizeEv.exit.i23

_ZNK6vectorIjLb0EjE4sizeEv.exit.i23:              ; preds = %_ZNK16indexed_uint_set8containsEj.exit.thread
  %27 = getelementptr inbounds i8, ptr %25, i64 -4
  %28 = load i32, ptr %27, align 4, !tbaa !58
  %29 = icmp ult i32 %3, %28
  br i1 %29, label %30, label %_ZNK16indexed_uint_set8containsEj.exit.thread.i

30:                                               ; preds = %_ZNK6vectorIjLb0EjE4sizeEv.exit.i23
  %31 = zext i32 %3 to i64
  %32 = getelementptr inbounds nuw i32, ptr %25, i64 %31
  %33 = load i32, ptr %32, align 4, !tbaa !58
  %34 = load i32, ptr %23, align 8, !tbaa !50
  %35 = icmp ult i32 %33, %34
  br i1 %35, label %_ZNK16indexed_uint_set8containsEj.exit24, label %42

_ZNK16indexed_uint_set8containsEj.exit24:         ; preds = %30
  %36 = getelementptr inbounds nuw i8, ptr %0, i64 56
  %37 = load ptr, ptr %36, align 8, !tbaa !55
  %38 = zext i32 %33 to i64
  %39 = getelementptr inbounds nuw i32, ptr %37, i64 %38
  %40 = load i32, ptr %39, align 4, !tbaa !58
  %41 = icmp eq i32 %40, %3
  br i1 %41, label %_ZNK6vectorI10ptr_vectorI4exprELb1EjE4sizeEv.exit.thread, label %42

42:                                               ; preds = %30, %_ZNK16indexed_uint_set8containsEj.exit24
  %43 = zext i32 %3 to i64
  %44 = getelementptr inbounds nuw i32, ptr %25, i64 %43
  %45 = load i32, ptr %44, align 4, !tbaa !58
  %46 = load i32, ptr %23, align 8, !tbaa !50
  %47 = icmp ult i32 %45, %46
  br i1 %47, label %_ZNK16indexed_uint_set8containsEj.exit.i, label %_ZNK16indexed_uint_set8containsEj.exit.thread.i

_ZNK16indexed_uint_set8containsEj.exit.i:         ; preds = %42
  %48 = getelementptr inbounds nuw i8, ptr %0, i64 56
  %49 = load ptr, ptr %48, align 8, !tbaa !55
  %50 = zext i32 %45 to i64
  %51 = getelementptr inbounds nuw i32, ptr %49, i64 %50
  %52 = load i32, ptr %51, align 4, !tbaa !58
  %53 = icmp eq i32 %52, %3
  br i1 %53, label %_ZN16indexed_uint_set6insertEj.exit, label %_ZNK16indexed_uint_set8containsEj.exit.thread.i

_ZNK16indexed_uint_set8containsEj.exit.thread.i:  ; preds = %_ZNK6vectorIjLb0EjE4sizeEv.exit.i23, %_ZNK16indexed_uint_set8containsEj.exit.thread, %_ZNK16indexed_uint_set8containsEj.exit.i, %42
  tail call void @_ZN16indexed_uint_set12insert_freshEj(ptr noundef nonnull align 8 dereferenceable(24) %23, i32 noundef %3)
  br label %_ZN16indexed_uint_set6insertEj.exit

_ZN16indexed_uint_set6insertEj.exit:              ; preds = %_ZNK16indexed_uint_set8containsEj.exit.i, %_ZNK16indexed_uint_set8containsEj.exit.thread.i
  %54 = getelementptr inbounds nuw i8, ptr %0, i64 104
  %55 = load ptr, ptr %54, align 8, !tbaa !68
  %56 = icmp eq ptr %55, null
  br i1 %56, label %_ZNK6vectorI10ptr_vectorI4exprELb1EjE4sizeEv.exit.thread, label %_ZNK6vectorI10ptr_vectorI4exprELb1EjE4sizeEv.exit

_ZNK6vectorI10ptr_vectorI4exprELb1EjE4sizeEv.exit: ; preds = %_ZN16indexed_uint_set6insertEj.exit
  %57 = getelementptr inbounds i8, ptr %55, i64 -4
  %58 = load i32, ptr %57, align 4, !tbaa !58
  %.not = icmp ugt i32 %58, %3
  br i1 %.not, label %59, label %_ZNK6vectorI10ptr_vectorI4exprELb1EjE4sizeEv.exit.thread

59:                                               ; preds = %_ZNK6vectorI10ptr_vectorI4exprELb1EjE4sizeEv.exit
  %60 = zext i32 %3 to i64
  %61 = getelementptr inbounds nuw %class.ptr_vector.1, ptr %55, i64 %60
  %62 = load ptr, ptr %61, align 8, !tbaa !51
  %63 = icmp eq ptr %62, null
  br i1 %63, label %_ZNK6vectorI10ptr_vectorI4exprELb1EjE4sizeEv.exit.thread, label %_ZN6vectorIP4exprLb0EjE3endEv.exit

_ZN6vectorIP4exprLb0EjE3endEv.exit:               ; preds = %59
  %64 = getelementptr inbounds i8, ptr %62, i64 -4
  %65 = load i32, ptr %64, align 4, !tbaa !58
  %66 = zext i32 %65 to i64
  %67 = getelementptr inbounds nuw ptr, ptr %62, i64 %66
  %.not2233.not = icmp eq i32 %65, 0
  br i1 %.not2233.not, label %_ZNK6vectorI10ptr_vectorI4exprELb1EjE4sizeEv.exit.thread, label %.critedge

68:                                               ; preds = %.critedge
  %69 = getelementptr inbounds nuw i8, ptr %.02034, i64 8
  %.not22.not = icmp eq ptr %69, %67
  br i1 %.not22.not, label %_ZNK6vectorI10ptr_vectorI4exprELb1EjE4sizeEv.exit.thread, label %.critedge

.critedge:                                        ; preds = %_ZN6vectorIP4exprLb0EjE3endEv.exit, %68
  %.02034 = phi ptr [ %69, %68 ], [ %62, %_ZN6vectorIP4exprLb0EjE3endEv.exit ]
  %70 = load ptr, ptr %.02034, align 8, !tbaa !61
  %71 = tail call noundef zeroext i1 @_ZN3sls7context11is_relevantEP4expr(ptr noundef nonnull align 8 dereferenceable(321) %0, ptr noundef %70)
  br i1 %71, label %72, label %68

72:                                               ; preds = %.critedge
  %73 = load ptr, ptr %5, align 8, !tbaa !55
  %74 = icmp eq ptr %73, null
  br i1 %74, label %_ZNK16indexed_uint_set8containsEj.exit.thread.i26, label %_ZNK6vectorIjLb0EjE4sizeEv.exit.i.i25

_ZNK6vectorIjLb0EjE4sizeEv.exit.i.i25:            ; preds = %72
  %75 = getelementptr inbounds i8, ptr %73, i64 -4
  %76 = load i32, ptr %75, align 4, !tbaa !58
  %77 = icmp ult i32 %3, %76
  br i1 %77, label %78, label %_ZNK16indexed_uint_set8containsEj.exit.thread.i26

78:                                               ; preds = %_ZNK6vectorIjLb0EjE4sizeEv.exit.i.i25
  %79 = getelementptr inbounds nuw i32, ptr %73, i64 %60
  %80 = load i32, ptr %79, align 4, !tbaa !58
  %81 = load i32, ptr %4, align 8, !tbaa !50
  %82 = icmp ult i32 %80, %81
  br i1 %82, label %_ZNK16indexed_uint_set8containsEj.exit.i27, label %_ZNK16indexed_uint_set8containsEj.exit.thread.i26

_ZNK16indexed_uint_set8containsEj.exit.i27:       ; preds = %78
  %83 = getelementptr inbounds nuw i8, ptr %0, i64 32
  %84 = load ptr, ptr %83, align 8, !tbaa !55
  %85 = zext i32 %80 to i64
  %86 = getelementptr inbounds nuw i32, ptr %84, i64 %85
  %87 = load i32, ptr %86, align 4, !tbaa !58
  %88 = icmp eq i32 %87, %3
  br i1 %88, label %_ZNK6vectorI10ptr_vectorI4exprELb1EjE4sizeEv.exit.thread, label %_ZNK16indexed_uint_set8containsEj.exit.thread.i26

_ZNK16indexed_uint_set8containsEj.exit.thread.i26: ; preds = %_ZNK16indexed_uint_set8containsEj.exit.i27, %78, %_ZNK6vectorIjLb0EjE4sizeEv.exit.i.i25, %72
  tail call void @_ZN16indexed_uint_set12insert_freshEj(ptr noundef nonnull align 8 dereferenceable(24) %4, i32 noundef %3)
  br label %_ZNK6vectorI10ptr_vectorI4exprELb1EjE4sizeEv.exit.thread

_ZNK6vectorI10ptr_vectorI4exprELb1EjE4sizeEv.exit.thread: ; preds = %68, %59, %_ZN6vectorIP4exprLb0EjE3endEv.exit, %_ZNK16indexed_uint_set8containsEj.exit.i27, %_ZNK16indexed_uint_set8containsEj.exit.thread.i26, %_ZN16indexed_uint_set6insertEj.exit, %_ZNK6vectorI10ptr_vectorI4exprELb1EjE4sizeEv.exit, %_ZNK16indexed_uint_set8containsEj.exit24, %_ZNK16indexed_uint_set8containsEj.exit
  %.0 = phi i1 [ true, %_ZNK16indexed_uint_set8containsEj.exit ], [ false, %_ZNK16indexed_uint_set8containsEj.exit24 ], [ false, %_ZNK6vectorI10ptr_vectorI4exprELb1EjE4sizeEv.exit ], [ false, %_ZN16indexed_uint_set6insertEj.exit ], [ true, %_ZNK16indexed_uint_set8containsEj.exit.thread.i26 ], [ true, %_ZNK16indexed_uint_set8containsEj.exit.i27 ], [ false, %_ZN6vectorIP4exprLb0EjE3endEv.exit ], [ false, %59 ], [ false, %68 ]
  ret i1 %.0
}